target datalayout = "e-m:e-p270:32:32-p271:32:32-p272:64:64-i64:64-i128:128-f80:128-n8:16:32:64-S128"
target triple = "x86_64-pc-linux-gnu"

; Function Attrs: mustprogress nounwind uwtable
define void @_ZN5faiss18fvec_L2sqr_batch_4EPKfS1_S1_S1_S1_mRfS2_S2_S2_(ptr noundef %0, ptr noundef %1, ptr noundef %2, ptr noundef %3, ptr noundef %4, i64 noundef %5, ptr noundef nonnull align 4 dereferenceable(4) %6, ptr noundef nonnull align 4 dereferenceable(4) %7, ptr noundef nonnull align 4 dereferenceable(4) %8, ptr noundef nonnull align 4 dereferenceable(4) %9) #0 {
  %11 = alloca ptr, align 8
  %12 = alloca ptr, align 8
  %13 = alloca ptr, align 8
  %14 = alloca ptr, align 8
  %15 = alloca ptr, align 8
  %16 = alloca i64, align 8
  %17 = alloca ptr, align 8
  %18 = alloca ptr, align 8
  %19 = alloca ptr, align 8
  %20 = alloca ptr, align 8
  %21 = alloca float, align 4
  %22 = alloca float, align 4
  %23 = alloca float, align 4
  %24 = alloca float, align 4
  %25 = alloca i64, align 8
  %26 = alloca float, align 4
  %27 = alloca float, align 4
  %28 = alloca float, align 4
  %29 = alloca float, align 4
  store ptr %0, ptr %11, align 8, !tbaa !4
  store ptr %1, ptr %12, align 8, !tbaa !4
  store ptr %2, ptr %13, align 8, !tbaa !4
  store ptr %3, ptr %14, align 8, !tbaa !4
  store ptr %4, ptr %15, align 8, !tbaa !4
  store i64 %5, ptr %16, align 8, !tbaa !9
  store ptr %6, ptr %17, align 8, !tbaa !4
  store ptr %7, ptr %18, align 8, !tbaa !4
  store ptr %8, ptr %19, align 8, !tbaa !4
  store ptr %9, ptr %20, align 8, !tbaa !4
  call void @llvm.lifetime.start.p0(i64 4, ptr %21) #13
  store float 0.000000e+00, ptr %21, align 4, !tbaa !11
  call void @llvm.lifetime.start.p0(i64 4, ptr %22) #13
  store float 0.000000e+00, ptr %22, align 4, !tbaa !11
  call void @llvm.lifetime.start.p0(i64 4, ptr %23) #13
  store float 0.000000e+00, ptr %23, align 4, !tbaa !11
  call void @llvm.lifetime.start.p0(i64 4, ptr %24) #13
  store float 0.000000e+00, ptr %24, align 4, !tbaa !11
  call void @llvm.lifetime.start.p0(i64 8, ptr %25) #13
  store i64 0, ptr %25, align 8, !tbaa !9
  br label %30

30:                                               ; preds = %92, %10
  %31 = load i64, ptr %25, align 8, !tbaa !9
  %32 = load i64, ptr %16, align 8, !tbaa !9
  %33 = icmp ult i64 %31, %32
  br i1 %33, label %35, label %34

34:                                               ; preds = %30
  call void @llvm.lifetime.end.p0(i64 8, ptr %25) #13
  br label %95

35:                                               ; preds = %30
  call void @llvm.lifetime.start.p0(i64 4, ptr %26) #13
  %36 = load ptr, ptr %11, align 8, !tbaa !4
  %37 = load i64, ptr %25, align 8, !tbaa !9
  %38 = getelementptr inbounds nuw float, ptr %36, i64 %37
  %39 = load float, ptr %38, align 4, !tbaa !11
  %40 = load ptr, ptr %12, align 8, !tbaa !4
  %41 = load i64, ptr %25, align 8, !tbaa !9
  %42 = getelementptr inbounds nuw float, ptr %40, i64 %41
  %43 = load float, ptr %42, align 4, !tbaa !11
  %44 = fsub fast float %39, %43
  store float %44, ptr %26, align 4, !tbaa !11
  call void @llvm.lifetime.start.p0(i64 4, ptr %27) #13
  %45 = load ptr, ptr %11, align 8, !tbaa !4
  %46 = load i64, ptr %25, align 8, !tbaa !9
  %47 = getelementptr inbounds nuw float, ptr %45, i64 %46
  %48 = load float, ptr %47, align 4, !tbaa !11
  %49 = load ptr, ptr %13, align 8, !tbaa !4
  %50 = load i64, ptr %25, align 8, !tbaa !9
  %51 = getelementptr inbounds nuw float, ptr %49, i64 %50
  %52 = load float, ptr %51, align 4, !tbaa !11
  %53 = fsub fast float %48, %52
  store float %53, ptr %27, align 4, !tbaa !11
  call void @llvm.lifetime.start.p0(i64 4, ptr %28) #13
  %54 = load ptr, ptr %11, align 8, !tbaa !4
  %55 = load i64, ptr %25, align 8, !tbaa !9
  %56 = getelementptr inbounds nuw float, ptr %54, i64 %55
  %57 = load float, ptr %56, align 4, !tbaa !11
  %58 = load ptr, ptr %14, align 8, !tbaa !4
  %59 = load i64, ptr %25, align 8, !tbaa !9
  %60 = getelementptr inbounds nuw float, ptr %58, i64 %59
  %61 = load float, ptr %60, align 4, !tbaa !11
  %62 = fsub fast float %57, %61
  store float %62, ptr %28, align 4, !tbaa !11
  call void @llvm.lifetime.start.p0(i64 4, ptr %29) #13
  %63 = load ptr, ptr %11, align 8, !tbaa !4
  %64 = load i64, ptr %25, align 8, !tbaa !9
  %65 = getelementptr inbounds nuw float, ptr %63, i64 %64
  %66 = load float, ptr %65, align 4, !tbaa !11
  %67 = load ptr, ptr %15, align 8, !tbaa !4
  %68 = load i64, ptr %25, align 8, !tbaa !9
  %69 = getelementptr inbounds nuw float, ptr %67, i64 %68
  %70 = load float, ptr %69, align 4, !tbaa !11
  %71 = fsub fast float %66, %70
  store float %71, ptr %29, align 4, !tbaa !11
  %72 = load float, ptr %26, align 4, !tbaa !11
  %73 = load float, ptr %26, align 4, !tbaa !11
  %74 = fmul fast float %72, %73
  %75 = load float, ptr %21, align 4, !tbaa !11
  %76 = fadd fast float %75, %74
  store float %76, ptr %21, align 4, !tbaa !11
  %77 = load float, ptr %27, align 4, !tbaa !11
  %78 = load float, ptr %27, align 4, !tbaa !11
  %79 = fmul fast float %77, %78
  %80 = load float, ptr %22, align 4, !tbaa !11
  %81 = fadd fast float %80, %79
  store float %81, ptr %22, align 4, !tbaa !11
  %82 = load float, ptr %28, align 4, !tbaa !11
  %83 = load float, ptr %28, align 4, !tbaa !11
  %84 = fmul fast float %82, %83
  %85 = load float, ptr %23, align 4, !tbaa !11
  %86 = fadd fast float %85, %84
  store float %86, ptr %23, align 4, !tbaa !11
  %87 = load float, ptr %29, align 4, !tbaa !11
  %88 = load float, ptr %29, align 4, !tbaa !11
  %89 = fmul fast float %87, %88
  %90 = load float, ptr %24, align 4, !tbaa !11
  %91 = fadd fast float %90, %89
  store float %91, ptr %24, align 4, !tbaa !11
  call void @llvm.lifetime.end.p0(i64 4, ptr %29) #13
  call void @llvm.lifetime.end.p0(i64 4, ptr %28) #13
  call void @llvm.lifetime.end.p0(i64 4, ptr %27) #13
  call void @llvm.lifetime.end.p0(i64 4, ptr %26) #13
  br label %92

92:                                               ; preds = %35
  %93 = load i64, ptr %25, align 8, !tbaa !9
  %94 = add i64 %93, 1
  store i64 %94, ptr %25, align 8, !tbaa !9
  br label %30, !llvm.loop !28

95:                                               ; preds = %34
  %96 = load float, ptr %21, align 4, !tbaa !11
  %97 = load ptr, ptr %17, align 8, !tbaa !4
  store float %96, ptr %97, align 4, !tbaa !11
  %98 = load float, ptr %22, align 4, !tbaa !11
  %99 = load ptr, ptr %18, align 8, !tbaa !4
  store float %98, ptr %99, align 4, !tbaa !11
  %100 = load float, ptr %23, align 4, !tbaa !11
  %101 = load ptr, ptr %19, align 8, !tbaa !4
  store float %100, ptr %101, align 4, !tbaa !11
  %102 = load float, ptr %24, align 4, !tbaa !11
  %103 = load ptr, ptr %20, align 8, !tbaa !4
  store float %102, ptr %103, align 4, !tbaa !11
  call void @llvm.lifetime.end.p0(i64 4, ptr %24) #13
  call void @llvm.lifetime.end.p0(i64 4, ptr %23) #13
  call void @llvm.lifetime.end.p0(i64 4, ptr %22) #13
  call void @llvm.lifetime.end.p0(i64 4, ptr %21) #13
  ret void
}