; Function Attrs: mustprogress nofree norecurse nosync nounwind memory(argmem: readwrite) uwtable
define void @_ZN5faiss18fvec_L2sqr_batch_4EPKfS1_S1_S1_S1_mRfS2_S2_S2_(ptr noundef readonly captures(none) %0, ptr noundef readonly captures(none) %1, ptr noundef readonly captures(none) %2, ptr noundef readonly captures(none) %3, ptr noundef readonly captures(none) %4, i64 noundef %5, ptr noundef nonnull writeonly align 4 captures(none) dereferenceable(4) %6, ptr noundef nonnull writeonly align 4 captures(none) dereferenceable(4) %7, ptr noundef nonnull writeonly align 4 captures(none) dereferenceable(4) %8, ptr noundef nonnull writeonly align 4 captures(none) dereferenceable(4) %9) local_unnamed_addr #2 {
  %.not = icmp eq i64 %5, 0
  br i1 %.not, label %._crit_edge, label %.lr.ph.preheader

.lr.ph.preheader:                                 ; preds = %10
  %min.iters.check = icmp ult i64 %5, 4
  br i1 %min.iters.check, label %.lr.ph.preheader69, label %vector.ph

vector.ph:                                        ; preds = %.lr.ph.preheader
  %n.vec = and i64 %5, -4
  br label %vector.body

vector.body:                                      ; preds = %vector.body, %vector.ph
  %index = phi i64 [ 0, %vector.ph ], [ %index.next, %vector.body ]
  %vec.phi = phi <4 x float> [ zeroinitializer, %vector.ph ], [ %21, %vector.body ]
  %vec.phi59 = phi <4 x float> [ zeroinitializer, %vector.ph ], [ %23, %vector.body ]
  %vec.phi60 = phi <4 x float> [ zeroinitializer, %vector.ph ], [ %25, %vector.body ]
  %vec.phi61 = phi <4 x float> [ zeroinitializer, %vector.ph ], [ %27, %vector.body ]
  %11 = getelementptr inbounds nuw float, ptr %0, i64 %index
  %wide.load = load <4 x float>, ptr %11, align 4, !tbaa !4
  %12 = getelementptr inbounds nuw float, ptr %1, i64 %index
  %wide.load62 = load <4 x float>, ptr %12, align 4, !tbaa !4
  %13 = fsub fast <4 x float> %wide.load, %wide.load62
  %14 = getelementptr inbounds nuw float, ptr %2, i64 %index
  %wide.load63 = load <4 x float>, ptr %14, align 4, !tbaa !4
  %15 = fsub fast <4 x float> %wide.load, %wide.load63
  %16 = getelementptr inbounds nuw float, ptr %3, i64 %index
  %wide.load64 = load <4 x float>, ptr %16, align 4, !tbaa !4
  %17 = fsub fast <4 x float> %wide.load, %wide.load64
  %18 = getelementptr inbounds nuw float, ptr %4, i64 %index
  %wide.load65 = load <4 x float>, ptr %18, align 4, !tbaa !4
  %19 = fsub fast <4 x float> %wide.load, %wide.load65
  %20 = fmul fast <4 x float> %13, %13
  %21 = fadd fast <4 x float> %20, %vec.phi
  %22 = fmul fast <4 x float> %15, %15
  %23 = fadd fast <4 x float> %22, %vec.phi59
  %24 = fmul fast <4 x float> %17, %17
  %25 = fadd fast <4 x float> %24, %vec.phi60
  %26 = fmul fast <4 x float> %19, %19
  %27 = fadd fast <4 x float> %26, %vec.phi61
  %index.next = add nuw i64 %index, 4
  %28 = icmp eq i64 %index.next, %n.vec
  br i1 %28, label %middle.block, label %vector.body, !llvm.loop !36

middle.block:                                     ; preds = %vector.body
  %29 = tail call fast float @llvm.vector.reduce.fadd.v4f32(float 0.000000e+00, <4 x float> %21)
  %30 = tail call fast float @llvm.vector.reduce.fadd.v4f32(float 0.000000e+00, <4 x float> %23)
  %31 = tail call fast float @llvm.vector.reduce.fadd.v4f32(float 0.000000e+00, <4 x float> %25)
  %32 = tail call fast float @llvm.vector.reduce.fadd.v4f32(float 0.000000e+00, <4 x float> %27)
  %cmp.n = icmp eq i64 %5, %n.vec
  br i1 %cmp.n, label %._crit_edge, label %.lr.ph.preheader69

.lr.ph.preheader69:                               ; preds = %.lr.ph.preheader, %middle.block
  %.046.ph = phi float [ 0.000000e+00, %.lr.ph.preheader ], [ %29, %middle.block ]
  %.03845.ph = phi float [ 0.000000e+00, %.lr.ph.preheader ], [ %30, %middle.block ]
  %.03944.ph = phi float [ 0.000000e+00, %.lr.ph.preheader ], [ %31, %middle.block ]
  %.04043.ph = phi float [ 0.000000e+00, %.lr.ph.preheader ], [ %32, %middle.block ]
  %.04142.ph = phi i64 [ 0, %.lr.ph.preheader ], [ %n.vec, %middle.block ]
  br label %.lr.ph

._crit_edge:                                      ; preds = %.lr.ph, %middle.block, %10
  %.040.lcssa = phi float [ 0.000000e+00, %10 ], [ %32, %middle.block ], [ %54, %.lr.ph ]
  %.039.lcssa = phi float [ 0.000000e+00, %10 ], [ %31, %middle.block ], [ %52, %.lr.ph ]
  %.038.lcssa = phi float [ 0.000000e+00, %10 ], [ %30, %middle.block ], [ %50, %.lr.ph ]
  %.0.lcssa = phi float [ 0.000000e+00, %10 ], [ %29, %middle.block ], [ %48, %.lr.ph ]
  store float %.0.lcssa, ptr %6, align 4, !tbaa !4
  store float %.038.lcssa, ptr %7, align 4, !tbaa !4
  store float %.039.lcssa, ptr %8, align 4, !tbaa !4
  store float %.040.lcssa, ptr %9, align 4, !tbaa !4
  ret void

.lr.ph:                                           ; preds = %.lr.ph.preheader69, %.lr.ph
  %.046 = phi float [ %48, %.lr.ph ], [ %.046.ph, %.lr.ph.preheader69 ]
  %.03845 = phi float [ %50, %.lr.ph ], [ %.03845.ph, %.lr.ph.preheader69 ]
  %.03944 = phi float [ %52, %.lr.ph ], [ %.03944.ph, %.lr.ph.preheader69 ]
  %.04043 = phi float [ %54, %.lr.ph ], [ %.04043.ph, %.lr.ph.preheader69 ]
  %.04142 = phi i64 [ %55, %.lr.ph ], [ %.04142.ph, %.lr.ph.preheader69 ]
  %33 = getelementptr inbounds nuw float, ptr %0, i64 %.04142
  %34 = load float, ptr %33, align 4, !tbaa !4
  %35 = getelementptr inbounds nuw float, ptr %1, i64 %.04142
  %36 = load float, ptr %35, align 4, !tbaa !4
  %37 = fsub fast float %34, %36
  %38 = getelementptr inbounds nuw float, ptr %2, i64 %.04142
  %39 = load float, ptr %38, align 4, !tbaa !4
  %40 = fsub fast float %34, %39
  %41 = getelementptr inbounds nuw float, ptr %3, i64 %.04142
  %42 = load float, ptr %41, align 4, !tbaa !4
  %43 = fsub fast float %34, %42
  %44 = getelementptr inbounds nuw float, ptr %4, i64 %.04142
  %45 = load float, ptr %44, align 4, !tbaa !4
  %46 = fsub fast float %34, %45
  %47 = fmul fast float %37, %37
  %48 = fadd fast float %47, %.046
  %49 = fmul fast float %40, %40
  %50 = fadd fast float %49, %.03845
  %51 = fmul fast float %43, %43
  %52 = fadd fast float %51, %.03944
  %53 = fmul fast float %46, %46
  %54 = fadd fast float %53, %.04043
  %55 = add nuw i64 %.04142, 1
  %exitcond.not = icmp eq i64 %55, %5
  br i1 %exitcond.not, label %._crit_edge, label %.lr.ph, !llvm.loop !37
}